target datalayout = "e-m:e-p270:32:32-p271:32:32-p272:64:64-i64:64-i128:128-f80:128-n8:16:32:64-S128"
target triple = "x86_64-pc-linux-gnu"

%struct.AC3EncodeContext = type { ptr, %struct.AC3EncOptions, ptr, %struct.AudioDSPContext, ptr, %struct.MECmpContext, %struct.AC3DSPContext, ptr, ptr, [6 x %struct.AC3Block], i32, i32, i32, i32, i32, i32, i32, i32, i32, i32, i32, [2 x i16], i64, i64, i32, i32, i32, i32, i32, i32, i32, ptr, i32, i32, i32, i32, i32, i32, i32, i32, [7 x i32], i32, i32, i32, i32, i32, [18 x i8], i32, i32, i32, i32, i32, i32, %struct.AC3BitAllocParameters, i32, [7 x i32], [7 x i32], i32, i32, i32, [6 x ptr], ptr, ptr, ptr, ptr, ptr, ptr, ptr, ptr, ptr, ptr, ptr, [7 x [6 x i8]], [7 x i8], i32, [7 x [6 x i8]], [7 x [6 x ptr]], i32, ptr, ptr, %union.anon, %union.anon.0 }
%struct.AC3EncOptions = type { i32, i32, float, float, i32, i32, i32, i32, i32, i32, i32, i32, float, float, float, float, i32, i32, i32, i32, i32, i32, i32, i32, i32, i32 }
%struct.AudioDSPContext = type { ptr, ptr, ptr }
%struct.MECmpContext = type { ptr, [6 x ptr], [6 x ptr], [6 x ptr], [6 x ptr], [6 x ptr], [6 x ptr], [6 x ptr], [6 x ptr], [6 x ptr], [6 x ptr], [6 x ptr], [6 x ptr], [6 x ptr], [6 x ptr], [2 x [4 x ptr]], [6 x ptr] }
%struct.AC3DSPContext = type { ptr, ptr, ptr, ptr, ptr, ptr, ptr, ptr, i32, i32, ptr, ptr }
%struct.AC3Block = type { [7 x ptr], [7 x ptr], [7 x ptr], [7 x ptr], [7 x ptr], [7 x ptr], [7 x ptr], [7 x ptr], [7 x ptr], [7 x ptr], i8, i32, [4 x i8], i32, i32, [7 x i8], i32, [7 x i8], [7 x i8], i32, i32, [7 x i32] }
%struct.AC3BitAllocParameters = type { i32, i32, i32, i32, i32, i32, i32, i32, i32 }
%union.anon = type { [256 x float] }
%union.anon.0 = type { [512 x float] }

@eac3_frame_expstr_index_tab = internal global [3 x [4 x [4 x [4 x [4 x [4 x i8]]]]]] zeroinitializer, align 16

; Function Attrs: nounwind uwtable
define void @ff_eac3_get_frame_exp_strategy(ptr noundef %0) #0 {
  %2 = alloca ptr, align 8
  %3 = alloca i32, align 4
  %4 = alloca i32, align 4
  %5 = alloca i32, align 4
  store ptr %0, ptr %2, align 8, !tbaa !4
  call void @llvm.lifetime.start.p0(i64 4, ptr %3) #7
  %6 = load ptr, ptr %2, align 8, !tbaa !4
  %7 = getelementptr inbounds nuw %struct.AC3EncodeContext, ptr %6, i32 0, i32 17
  %8 = load i32, ptr %7, align 4, !tbaa !9
  %9 = icmp slt i32 %8, 6
  br i1 %9, label %10, label %13

10:                                               ; preds = %1
  %11 = load ptr, ptr %2, align 8, !tbaa !4
  %12 = getelementptr inbounds nuw %struct.AC3EncodeContext, ptr %11, i32 0, i32 74
  store i32 0, ptr %12, align 4, !tbaa !27
  store i32 1, ptr %4, align 4
  br label %107

13:                                               ; preds = %1
  %14 = load ptr, ptr %2, align 8, !tbaa !4
  %15 = getelementptr inbounds nuw %struct.AC3EncodeContext, ptr %14, i32 0, i32 74
  store i32 1, ptr %15, align 4, !tbaa !27
  %16 = load ptr, ptr %2, align 8, !tbaa !4
  %17 = getelementptr inbounds nuw %struct.AC3EncodeContext, ptr %16, i32 0, i32 42
  %18 = load i32, ptr %17, align 16, !tbaa !28
  %19 = icmp ne i32 %18, 0
  %20 = xor i1 %19, true
  %21 = zext i1 %20 to i32
  store i32 %21, ptr %3, align 4, !tbaa !29
  br label %22

22:                                               ; preds = %103, %13
  %23 = load i32, ptr %3, align 4, !tbaa !29
  %24 = load ptr, ptr %2, align 8, !tbaa !4
  %25 = getelementptr inbounds nuw %struct.AC3EncodeContext, ptr %24, i32 0, i32 24
  %26 = load i32, ptr %25, align 8, !tbaa !30
  %27 = icmp sle i32 %23, %26
  br i1 %27, label %28, label %106

28:                                               ; preds = %22
  call void @llvm.lifetime.start.p0(i64 4, ptr %5) #7
  %29 = load ptr, ptr %2, align 8, !tbaa !4
  %30 = getelementptr inbounds nuw %struct.AC3EncodeContext, ptr %29, i32 0, i32 72
  %31 = load i32, ptr %3, align 4, !tbaa !29
  %32 = sext i32 %31 to i64
  %33 = getelementptr inbounds [7 x [6 x i8]], ptr %30, i64 0, i64 %32
  %34 = getelementptr inbounds [6 x i8], ptr %33, i64 0, i64 0
  %35 = load i8, ptr %34, align 2, !tbaa !31
  %36 = zext i8 %35 to i32
  %37 = sub nsw i32 %36, 1
  %38 = sext i32 %37 to i64
  %39 = getelementptr inbounds [3 x [4 x [4 x [4 x [4 x [4 x i8]]]]]], ptr @eac3_frame_expstr_index_tab, i64 0, i64 %38
  %40 = load ptr, ptr %2, align 8, !tbaa !4
  %41 = getelementptr inbounds nuw %struct.AC3EncodeContext, ptr %40, i32 0, i32 72
  %42 = load i32, ptr %3, align 4, !tbaa !29
  %43 = sext i32 %42 to i64
  %44 = getelementptr inbounds [7 x [6 x i8]], ptr %41, i64 0, i64 %43
  %45 = getelementptr inbounds [6 x i8], ptr %44, i64 0, i64 1
  %46 = load i8, ptr %45, align 1, !tbaa !31
  %47 = zext i8 %46 to i64
  %48 = getelementptr inbounds nuw [4 x [4 x [4 x [4 x [4 x i8]]]]], ptr %39, i64 0, i64 %47
  %49 = load ptr, ptr %2, align 8, !tbaa !4
  %50 = getelementptr inbounds nuw %struct.AC3EncodeContext, ptr %49, i32 0, i32 72
  %51 = load i32, ptr %3, align 4, !tbaa !29
  %52 = sext i32 %51 to i64
  %53 = getelementptr inbounds [7 x [6 x i8]], ptr %50, i64 0, i64 %52
  %54 = getelementptr inbounds [6 x i8], ptr %53, i64 0, i64 2
  %55 = load i8, ptr %54, align 2, !tbaa !31
  %56 = zext i8 %55 to i64
  %57 = getelementptr inbounds nuw [4 x [4 x [4 x [4 x i8]]]], ptr %48, i64 0, i64 %56
  %58 = load ptr, ptr %2, align 8, !tbaa !4
  %59 = getelementptr inbounds nuw %struct.AC3EncodeContext, ptr %58, i32 0, i32 72
  %60 = load i32, ptr %3, align 4, !tbaa !29
  %61 = sext i32 %60 to i64
  %62 = getelementptr inbounds [7 x [6 x i8]], ptr %59, i64 0, i64 %61
  %63 = getelementptr inbounds [6 x i8], ptr %62, i64 0, i64 3
  %64 = load i8, ptr %63, align 1, !tbaa !31
  %65 = zext i8 %64 to i64
  %66 = getelementptr inbounds nuw [4 x [4 x [4 x i8]]], ptr %57, i64 0, i64 %65
  %67 = load ptr, ptr %2, align 8, !tbaa !4
  %68 = getelementptr inbounds nuw %struct.AC3EncodeContext, ptr %67, i32 0, i32 72
  %69 = load i32, ptr %3, align 4, !tbaa !29
  %70 = sext i32 %69 to i64
  %71 = getelementptr inbounds [7 x [6 x i8]], ptr %68, i64 0, i64 %70
  %72 = getelementptr inbounds [6 x i8], ptr %71, i64 0, i64 4
  %73 = load i8, ptr %72, align 2, !tbaa !31
  %74 = zext i8 %73 to i64
  %75 = getelementptr inbounds nuw [4 x [4 x i8]], ptr %66, i64 0, i64 %74
  %76 = load ptr, ptr %2, align 8, !tbaa !4
  %77 = getelementptr inbounds nuw %struct.AC3EncodeContext, ptr %76, i32 0, i32 72
  %78 = load i32, ptr %3, align 4, !tbaa !29
  %79 = sext i32 %78 to i64
  %80 = getelementptr inbounds [7 x [6 x i8]], ptr %77, i64 0, i64 %79
  %81 = getelementptr inbounds [6 x i8], ptr %80, i64 0, i64 5
  %82 = load i8, ptr %81, align 1, !tbaa !31
  %83 = zext i8 %82 to i64
  %84 = getelementptr inbounds nuw [4 x i8], ptr %75, i64 0, i64 %83
  %85 = load i8, ptr %84, align 1, !tbaa !31
  %86 = sext i8 %85 to i32
  store i32 %86, ptr %5, align 4, !tbaa !29
  %87 = load i32, ptr %5, align 4, !tbaa !29
  %88 = icmp slt i32 %87, 0
  br i1 %88, label %89, label %92

89:                                               ; preds = %28
  %90 = load ptr, ptr %2, align 8, !tbaa !4
  %91 = getelementptr inbounds nuw %struct.AC3EncodeContext, ptr %90, i32 0, i32 74
  store i32 0, ptr %91, align 4, !tbaa !27
  store i32 2, ptr %4, align 4
  br label %100

92:                                               ; preds = %28
  %93 = load i32, ptr %5, align 4, !tbaa !29
  %94 = trunc i32 %93 to i8
  %95 = load ptr, ptr %2, align 8, !tbaa !4
  %96 = getelementptr inbounds nuw %struct.AC3EncodeContext, ptr %95, i32 0, i32 73
  %97 = load i32, ptr %3, align 4, !tbaa !29
  %98 = sext i32 %97 to i64
  %99 = getelementptr inbounds [7 x i8], ptr %96, i64 0, i64 %98
  store i8 %94, ptr %99, align 1, !tbaa !31
  store i32 0, ptr %4, align 4
  br label %100

100:                                              ; preds = %92, %89
  call void @llvm.lifetime.end.p0(i64 4, ptr %5) #7
  %101 = load i32, ptr %4, align 4
  switch i32 %101, label %110 [
    i32 0, label %102
    i32 2, label %106
  ]

102:                                              ; preds = %100
  br label %103

103:                                              ; preds = %102
  %104 = load i32, ptr %3, align 4, !tbaa !29
  %105 = add nsw i32 %104, 1
  store i32 %105, ptr %3, align 4, !tbaa !29
  br label %22, !llvm.loop !32

106:                                              ; preds = %100, %22
  store i32 0, ptr %4, align 4
  br label %107

107:                                              ; preds = %106, %10
  call void @llvm.lifetime.end.p0(i64 4, ptr %3) #7
  %108 = load i32, ptr %4, align 4
  switch i32 %108, label %110 [
    i32 0, label %109
    i32 1, label %109
  ]

109:                                              ; preds = %107, %107
  ret void

110:                                              ; preds = %107, %100
  unreachable
}