; Function Attrs: nofree norecurse nosync nounwind memory(read, argmem: readwrite, inaccessiblemem: none) uwtable
define void @ff_eac3_get_frame_exp_strategy(ptr noundef captures(none) initializes((5460, 5464)) %0) local_unnamed_addr #0 {
  %2 = getelementptr inbounds nuw i8, ptr %0, i64 4964
  %3 = load i32, ptr %2, align 4, !tbaa !4
  %4 = icmp slt i32 %3, 6
  %5 = getelementptr inbounds nuw i8, ptr %0, i64 5460
  br i1 %4, label %.loopexit.sink.split, label %6

6:                                                ; preds = %1
  store i32 1, ptr %5, align 4, !tbaa !25
  %7 = getelementptr inbounds nuw i8, ptr %0, i64 5104
  %8 = load i32, ptr %7, align 16, !tbaa !26
  %.not = icmp eq i32 %8, 0
  %9 = zext i1 %.not to i32
  %10 = getelementptr inbounds nuw i8, ptr %0, i64 5000
  %11 = load i32, ptr %10, align 8, !tbaa !27
  %.not2528 = icmp slt i32 %11, %9
  br i1 %.not2528, label %.loopexit, label %.lr.ph

.lr.ph:                                           ; preds = %6
  %12 = getelementptr inbounds nuw i8, ptr %0, i64 5408
  %13 = getelementptr inbounds nuw i8, ptr %0, i64 5450
  %14 = zext i1 %.not to i64
  %15 = add nuw i32 %11, 1
  %wide.trip.count = zext i32 %15 to i64
  br label %16

16:                                               ; preds = %.lr.ph, %39
  %indvars.iv = phi i64 [ %14, %.lr.ph ], [ %indvars.iv.next, %39 ]
  %17 = getelementptr inbounds nuw [7 x [6 x i8]], ptr %12, i64 0, i64 %indvars.iv
  %18 = load i8, ptr %17, align 2, !tbaa !28
  %19 = zext i8 %18 to i64
  %20 = add nsw i64 %19, -1
  %21 = getelementptr inbounds nuw i8, ptr %17, i64 1
  %22 = load i8, ptr %21, align 1, !tbaa !28
  %23 = zext i8 %22 to i64
  %24 = getelementptr inbounds nuw i8, ptr %17, i64 2
  %25 = load i8, ptr %24, align 2, !tbaa !28
  %26 = zext i8 %25 to i64
  %27 = getelementptr inbounds nuw i8, ptr %17, i64 3
  %28 = load i8, ptr %27, align 1, !tbaa !28
  %29 = zext i8 %28 to i64
  %30 = getelementptr inbounds nuw i8, ptr %17, i64 4
  %31 = load i8, ptr %30, align 2, !tbaa !28
  %32 = zext i8 %31 to i64
  %33 = getelementptr inbounds nuw i8, ptr %17, i64 5
  %34 = load i8, ptr %33, align 1, !tbaa !28
  %35 = zext i8 %34 to i64
  %36 = getelementptr inbounds [3 x [4 x [4 x [4 x [4 x [4 x i8]]]]]], ptr @eac3_frame_expstr_index_tab, i64 0, i64 %20, i64 %23, i64 %26, i64 %29, i64 %32, i64 %35
  %37 = load i8, ptr %36, align 1, !tbaa !28
  %38 = icmp slt i8 %37, 0
  br i1 %38, label %.loopexit.sink.split, label %39

39:                                               ; preds = %16
  %40 = getelementptr inbounds nuw [7 x i8], ptr %13, i64 0, i64 %indvars.iv
  store i8 %37, ptr %40, align 1, !tbaa !28
  %indvars.iv.next = add nuw nsw i64 %indvars.iv, 1
  %exitcond.not = icmp eq i64 %indvars.iv.next, %wide.trip.count
  br i1 %exitcond.not, label %.loopexit, label %16, !llvm.loop !29

.loopexit.sink.split:                             ; preds = %16, %1
  store i32 0, ptr %5, align 4, !tbaa !25
  br label %.loopexit

.loopexit:                                        ; preds = %39, %.loopexit.sink.split, %6
  ret void
}